target datalayout = "e-m:e-p270:32:32-p271:32:32-p272:64:64-i64:64-i128:128-f80:128-n8:16:32:64-S128"
target triple = "x86_64-pc-linux-gnu"

@snmp_desegment = internal global i32 1, align 4
@.str.331 = private unnamed_addr constant [11 x i8] c"SNMP Users\00", align 1
@.str.332 = private unnamed_addr constant [11 x i8] c"snmp_users\00", align 1
@ueas = internal global ptr null, align 8
@num_ueas = internal global i32 0, align 4
@.str.333 = private unnamed_addr constant [19 x i8] c"ChSNMPUsersSection\00", align 1
@.str.341 = private unnamed_addr constant [36 x i8] c"SNMP Enterprise Specific Trap Types\00", align 1
@.str.342 = private unnamed_addr constant [20 x i8] c"snmp_specific_traps\00", align 1
@specific_traps = internal global ptr null, align 8
@num_specific_traps = internal global i32 0, align 4
@.str.343 = private unnamed_addr constant [34 x i8] c"ChSNMPEnterpriseSpecificTrapTypes\00", align 1
@.str.344 = private unnamed_addr constant [35 x i8] c"Simple Network Management Protocol\00", align 1
@.str.345 = private unnamed_addr constant [5 x i8] c"SNMP\00", align 1
@.str.346 = private unnamed_addr constant [5 x i8] c"snmp\00", align 1
@proto_snmp = internal global i32 0, align 4
@snmp_handle = internal global ptr null, align 8
@.str.347 = private unnamed_addr constant [9 x i8] c"snmp.tcp\00", align 1
@snmp_tcp_handle = internal global ptr null, align 8
@.str.348 = private unnamed_addr constant [12 x i8] c"display_oid\00", align 1
@.str.349 = private unnamed_addr constant [29 x i8] c"Show SNMP OID in info column\00", align 1
@.str.350 = private unnamed_addr constant [56 x i8] c"Whether the SNMP OID should be shown in the info column\00", align 1
@display_oid = internal global i32 1, align 4
@.str.351 = private unnamed_addr constant [12 x i8] c"mib_modules\00", align 1
@.str.352 = private unnamed_addr constant [11 x i8] c"users_file\00", align 1
@.str.353 = private unnamed_addr constant [10 x i8] c"desegment\00", align 1
@.str.354 = private unnamed_addr constant [65 x i8] c"Reassemble SNMP-over-TCP messages spanning multiple TCP segments\00", align 1
@.str.355 = private unnamed_addr constant [205 x i8] c"Whether the SNMP dissector should reassemble messages spanning multiple TCP segments. To use this option, you must also enable \22Allow subdissectors to reassemble TCP streams\22 in the TCP protocol settings.\00", align 1
@.str.356 = private unnamed_addr constant [12 x i8] c"var_in_tree\00", align 1
@.str.357 = private unnamed_addr constant [45 x i8] c"Display dissected variables inside SNMP tree\00", align 1
@.str.358 = private unnamed_addr constant [109 x i8] c"ON - display dissected variables inside SNMP tree, OFF - display dissected variables in root tree after SNMP\00", align 1
@snmp_var_in_tree = internal global i32 1, align 4
@.str.359 = private unnamed_addr constant [12 x i8] c"users_table\00", align 1
@.str.360 = private unnamed_addr constant [12 x i8] c"Users Table\00", align 1
@.str.361 = private unnamed_addr constant [73 x i8] c"Table of engine-user associations used for authentication and decryption\00", align 1
@.str.362 = private unnamed_addr constant [21 x i8] c"specific_traps_table\00", align 1
@.str.363 = private unnamed_addr constant [31 x i8] c"Enterprise Specific Trap Types\00", align 1
@.str.364 = private unnamed_addr constant [52 x i8] c"Table of enterprise specific-trap type descriptions\00", align 1
@.str.365 = private unnamed_addr constant [18 x i8] c"snmp.variable_oid\00", align 1
@.str.366 = private unnamed_addr constant [18 x i8] c"SNMP Variable OID\00", align 1
@value_sub_dissectors_table = hidden global ptr null, align 8
@snmp_tap = internal global i32 0, align 4

; Function Attrs: nounwind uwtable
define hidden void @proto_register_snmp() #0 {
  %1 = alloca ptr, align 8
  %2 = alloca ptr, align 8
  %3 = alloca ptr, align 8
  %4 = alloca ptr, align 8
  %5 = call ptr @uat_new(ptr noundef @.str.331, i64 noundef 128, ptr noundef @.str.332, i1 noundef zeroext true, ptr noundef @ueas, ptr noundef @num_ueas, i32 noundef 1, ptr noundef @.str.333, ptr noundef @snmp_users_copy_cb, ptr noundef @snmp_users_update_cb, ptr noundef @snmp_users_free_cb, ptr noundef @renew_ue_cache, ptr noundef null, ptr noundef @proto_register_snmp.users_fields)
  store ptr %5, ptr %3, align 8
  %6 = call ptr @uat_new(ptr noundef @.str.341, i64 noundef 24, ptr noundef @.str.342, i1 noundef zeroext true, ptr noundef @specific_traps, ptr noundef @num_specific_traps, i32 noundef 1, ptr noundef @.str.343, ptr noundef @snmp_specific_trap_copy_cb, ptr noundef null, ptr noundef @snmp_specific_trap_free_cb, ptr noundef null, ptr noundef null, ptr noundef @proto_register_snmp.specific_traps_flds)
  store ptr %6, ptr %4, align 8
  %7 = call i32 @proto_register_protocol(ptr noundef @.str.344, ptr noundef @.str.345, ptr noundef @.str.346)
  store i32 %7, ptr @proto_snmp, align 4
  %8 = load i32, ptr @proto_snmp, align 4
  %9 = call ptr @register_dissector(ptr noundef @.str.346, ptr noundef @dissect_snmp, i32 noundef %8)
  store ptr %9, ptr @snmp_handle, align 8
  %10 = load i32, ptr @proto_snmp, align 4
  call void @proto_register_field_array(i32 noundef %10, ptr noundef @proto_register_snmp.hf, i32 noundef 106)
  call void @proto_register_subtree_array(ptr noundef @proto_register_snmp.ett, i32 noundef 30)
  %11 = load i32, ptr @proto_snmp, align 4
  %12 = call ptr @expert_register_protocol(i32 noundef %11)
  store ptr %12, ptr %1, align 8
  %13 = load ptr, ptr %1, align 8
  call void @expert_register_field_array(ptr noundef %13, ptr noundef @proto_register_snmp.ei, i32 noundef 31)
  %14 = load i32, ptr @proto_snmp, align 4
  %15 = call ptr @register_dissector(ptr noundef @.str.347, ptr noundef @dissect_snmp_tcp, i32 noundef %14)
  store ptr %15, ptr @snmp_tcp_handle, align 8
  %16 = load i32, ptr @proto_snmp, align 4
  %17 = call ptr @prefs_register_protocol(i32 noundef %16, ptr noundef @process_prefs)
  store ptr %17, ptr %2, align 8
  %18 = load ptr, ptr %2, align 8
  call void @prefs_register_bool_preference(ptr noundef %18, ptr noundef @.str.348, ptr noundef @.str.349, ptr noundef @.str.350, ptr noundef @display_oid)
  %19 = load ptr, ptr %2, align 8
  call void @prefs_register_obsolete_preference(ptr noundef %19, ptr noundef @.str.351)
  %20 = load ptr, ptr %2, align 8
  call void @prefs_register_obsolete_preference(ptr noundef %20, ptr noundef @.str.352)
  %21 = load ptr, ptr %2, align 8
  call void @prefs_register_bool_preference(ptr noundef %21, ptr noundef @.str.353, ptr noundef @.str.354, ptr noundef @.str.355, ptr noundef @snmp_desegment)
  %22 = load ptr, ptr %2, align 8
  call void @prefs_register_bool_preference(ptr noundef %22, ptr noundef @.str.356, ptr noundef @.str.357, ptr noundef @.str.358, ptr noundef @snmp_var_in_tree)
  %23 = load ptr, ptr %2, align 8
  %24 = load ptr, ptr %3, align 8
  call void @prefs_register_uat_preference(ptr noundef %23, ptr noundef @.str.359, ptr noundef @.str.360, ptr noundef @.str.361, ptr noundef %24)
  %25 = load ptr, ptr %2, align 8
  %26 = load ptr, ptr %4, align 8
  call void @prefs_register_uat_preference(ptr noundef %25, ptr noundef @.str.362, ptr noundef @.str.363, ptr noundef @.str.364, ptr noundef %26)
  %27 = load i32, ptr @proto_snmp, align 4
  %28 = call ptr @register_dissector_table(ptr noundef @.str.365, ptr noundef @.str.366, i32 noundef %27, i32 noundef 26, i32 noundef 0)
  store ptr %28, ptr @value_sub_dissectors_table, align 8
  call void @register_init_routine(ptr noundef @init_ue_cache)
  call void @register_cleanup_routine(ptr noundef @cleanup_ue_cache)
  %29 = load i32, ptr @proto_snmp, align 4
  call void @register_ber_syntax_dissector(ptr noundef @.str.345, i32 noundef %29, ptr noundef @dissect_snmp_tcp)
  %30 = call i32 @register_tap(ptr noundef @.str.346)
  store i32 %30, ptr @snmp_tap, align 4
  %31 = load i32, ptr @proto_snmp, align 4
  call void @register_srt_table(i32 noundef %31, ptr noundef null, i32 noundef 1, ptr noundef @snmpstat_packet, ptr noundef @snmpstat_init, ptr noundef null)
  ret void
}