; Function Attrs: nounwind uwtable
define hidden void @proto_register_snmp() local_unnamed_addr #0 {
  %1 = tail call ptr @uat_new(ptr noundef nonnull @.str.331, i64 noundef 128, ptr noundef nonnull @.str.332, i1 noundef zeroext true, ptr noundef nonnull @ueas, ptr noundef nonnull @num_ueas, i32 noundef 1, ptr noundef nonnull @.str.333, ptr noundef nonnull @snmp_users_copy_cb, ptr noundef nonnull @snmp_users_update_cb, ptr noundef nonnull @snmp_users_free_cb, ptr noundef nonnull @renew_ue_cache, ptr noundef null, ptr noundef nonnull @proto_register_snmp.users_fields) #11
  %2 = tail call ptr @uat_new(ptr noundef nonnull @.str.341, i64 noundef 24, ptr noundef nonnull @.str.342, i1 noundef zeroext true, ptr noundef nonnull @specific_traps, ptr noundef nonnull @num_specific_traps, i32 noundef 1, ptr noundef nonnull @.str.343, ptr noundef nonnull @snmp_specific_trap_copy_cb, ptr noundef null, ptr noundef nonnull @snmp_specific_trap_free_cb, ptr noundef null, ptr noundef null, ptr noundef nonnull @proto_register_snmp.specific_traps_flds) #11
  %3 = tail call i32 @proto_register_protocol(ptr noundef nonnull @.str.344, ptr noundef nonnull @.str.345, ptr noundef nonnull @.str.346) #11
  store i32 %3, ptr @proto_snmp, align 4
  %4 = tail call ptr @register_dissector(ptr noundef nonnull @.str.346, ptr noundef nonnull @dissect_snmp, i32 noundef %3) #11
  store ptr %4, ptr @snmp_handle, align 8
  %5 = load i32, ptr @proto_snmp, align 4
  tail call void @proto_register_field_array(i32 noundef %5, ptr noundef nonnull @proto_register_snmp.hf, i32 noundef 106) #11
  tail call void @proto_register_subtree_array(ptr noundef nonnull @proto_register_snmp.ett, i32 noundef 30) #11
  %6 = load i32, ptr @proto_snmp, align 4
  %7 = tail call ptr @expert_register_protocol(i32 noundef %6) #11
  tail call void @expert_register_field_array(ptr noundef %7, ptr noundef nonnull @proto_register_snmp.ei, i32 noundef 31) #11
  %8 = load i32, ptr @proto_snmp, align 4
  %9 = tail call ptr @register_dissector(ptr noundef nonnull @.str.347, ptr noundef nonnull @dissect_snmp_tcp, i32 noundef %8) #11
  store ptr %9, ptr @snmp_tcp_handle, align 8
  %10 = load i32, ptr @proto_snmp, align 4
  %11 = tail call ptr @prefs_register_protocol(i32 noundef %10, ptr noundef nonnull @process_prefs) #11
  tail call void @prefs_register_bool_preference(ptr noundef %11, ptr noundef nonnull @.str.348, ptr noundef nonnull @.str.349, ptr noundef nonnull @.str.350, ptr noundef nonnull @display_oid) #11
  tail call void @prefs_register_obsolete_preference(ptr noundef %11, ptr noundef nonnull @.str.351) #11
  tail call void @prefs_register_obsolete_preference(ptr noundef %11, ptr noundef nonnull @.str.352) #11
  tail call void @prefs_register_bool_preference(ptr noundef %11, ptr noundef nonnull @.str.353, ptr noundef nonnull @.str.354, ptr noundef nonnull @.str.355, ptr noundef nonnull @snmp_desegment) #11
  tail call void @prefs_register_bool_preference(ptr noundef %11, ptr noundef nonnull @.str.356, ptr noundef nonnull @.str.357, ptr noundef nonnull @.str.358, ptr noundef nonnull @snmp_var_in_tree) #11
  tail call void @prefs_register_uat_preference(ptr noundef %11, ptr noundef nonnull @.str.359, ptr noundef nonnull @.str.360, ptr noundef nonnull @.str.361, ptr noundef %1) #11
  tail call void @prefs_register_uat_preference(ptr noundef %11, ptr noundef nonnull @.str.362, ptr noundef nonnull @.str.363, ptr noundef nonnull @.str.364, ptr noundef %2) #11
  %12 = load i32, ptr @proto_snmp, align 4
  %13 = tail call ptr @register_dissector_table(ptr noundef nonnull @.str.365, ptr noundef nonnull @.str.366, i32 noundef %12, i32 noundef 26, i32 noundef 0) #11
  store ptr %13, ptr @value_sub_dissectors_table, align 8
  tail call void @register_init_routine(ptr noundef nonnull @init_ue_cache) #11
  tail call void @register_cleanup_routine(ptr noundef nonnull @cleanup_ue_cache) #11
  %14 = load i32, ptr @proto_snmp, align 4
  tail call void @register_ber_syntax_dissector(ptr noundef nonnull @.str.345, i32 noundef %14, ptr noundef nonnull @dissect_snmp_tcp) #11
  %15 = tail call i32 @register_tap(ptr noundef nonnull @.str.346) #11
  store i32 %15, ptr @snmp_tap, align 4
  %16 = load i32, ptr @proto_snmp, align 4
  tail call void @register_srt_table(i32 noundef %16, ptr noundef null, i32 noundef 1, ptr noundef nonnull @snmpstat_packet, ptr noundef nonnull @snmpstat_init, ptr noundef null) #11
  ret void
}